target datalayout = "e-m:e-p270:32:32-p271:32:32-p272:64:64-i64:64-i128:128-f80:128-n8:16:32:64-S128"
target triple = "x86_64-pc-linux-gnu"

%struct.H5D_layout_ops_t = type { ptr, ptr, ptr, ptr, ptr, ptr, ptr, ptr, ptr, ptr, ptr, ptr, ptr }
%struct.H5D_t = type { %struct.H5O_loc_t, %struct.H5G_name_t, ptr }
%struct.H5O_loc_t = type { ptr, i64, i8 }
%struct.H5G_name_t = type { ptr, ptr, i32 }
%struct.H5D_dset_io_info_t = type { ptr, ptr, %struct.H5D_layout_ops_t, %union.H5_flexible_const_ptr_t, %struct.H5D_io_ops_t, ptr, i64, ptr, ptr, %union.anon, ptr, %struct.H5D_type_info_t, i8 }
%union.H5_flexible_const_ptr_t = type { ptr }
%struct.H5D_io_ops_t = type { ptr, ptr, ptr, ptr }
%union.anon = type { ptr }
%struct.H5D_type_info_t = type { ptr, ptr, ptr, ptr, ptr, i64, i64, i8, i8, ptr, i32, i64 }
%struct.H5D_contig_storage_t = type { i64, i64 }
%struct.H5D_io_info_t = type { ptr, %struct.H5D_md_io_ops_t, i32, i64, i64, ptr, i64, i64, i64, ptr, ptr, ptr, ptr, ptr, ptr, ptr, i64, %union.H5_flexible_const_ptr_t, i32, ptr, i8, i64, ptr, i8, i64, i64, i8, i8, i32 }
%struct.H5D_md_io_ops_t = type { ptr, ptr, ptr, ptr }

@H5D_init_g = external global i8, align 1
@H5_libterm_g = external global i8, align 1
@.str.1 = private unnamed_addr constant [103 x i8] c"generated/home/dtcxzyw/WorkSpace/Projects/compilers/llvm-opt-benchmark/bench/hdf5/hdf5/src/H5Dcontig.c\00", align 1
@H5E_DATASET_g = external global i64, align 8
@__func__.H5D__contig_write = private unnamed_addr constant [18 x i8] c"H5D__contig_write\00", align 1
@H5E_WRITEERROR_g = external global i64, align 8
@.str.16 = private unnamed_addr constant [34 x i8] c"contiguous selection write failed\00", align 1
@.str.17 = private unnamed_addr constant [24 x i8] c"contiguous write failed\00", align 1

; Function Attrs: nounwind uwtable
define i32 @H5D__contig_write(ptr noundef %0, ptr noundef %1) #0 {
  %3 = alloca i32, align 4
  %4 = alloca ptr, align 8
  %5 = alloca ptr, align 8
  %6 = alloca i32, align 4
  %7 = alloca i8, align 1
  %8 = alloca i64, align 8
  %9 = alloca i32, align 4
  store ptr %0, ptr %4, align 8, !tbaa !62
  store ptr %1, ptr %5, align 8, !tbaa !64
  call void @llvm.lifetime.start.p0(i64 4, ptr %6) #6
  store i32 0, ptr %6, align 4, !tbaa !10
  call void @llvm.lifetime.start.p0(i64 1, ptr %7) #6
  store i8 0, ptr %7, align 1, !tbaa !12
  %10 = load i8, ptr @H5D_init_g, align 1, !tbaa !12, !range !14, !noundef !15
  %11 = trunc i8 %10 to i1
  br i1 %11, label %16, label %12

12:                                               ; preds = %2
  %13 = load i8, ptr @H5_libterm_g, align 1, !tbaa !12, !range !14, !noundef !15
  %14 = trunc i8 %13 to i1
  %15 = xor i1 %14, true
  br label %16

16:                                               ; preds = %12, %2
  %17 = phi i1 [ true, %2 ], [ %15, %12 ]
  %18 = xor i1 %17, true
  %19 = xor i1 %18, true
  %20 = zext i1 %19 to i32
  %21 = sext i32 %20 to i64
  %22 = call i64 @llvm.expect.i64(i64 %21, i64 1)
  %23 = icmp ne i64 %22, 0
  br i1 %23, label %24, label %208

24:                                               ; preds = %16
  %25 = load ptr, ptr %4, align 8, !tbaa !62
  %26 = getelementptr inbounds nuw %struct.H5D_io_info_t, ptr %25, i32 0, i32 18
  %27 = load i32, ptr %26, align 8, !tbaa !96
  %28 = icmp eq i32 %27, 2
  br i1 %28, label %29, label %177

29:                                               ; preds = %24
  %30 = load ptr, ptr %4, align 8, !tbaa !62
  %31 = getelementptr inbounds nuw %struct.H5D_io_info_t, ptr %30, i32 0, i32 18
  %32 = load i32, ptr %31, align 8, !tbaa !96
  %33 = icmp eq i32 %32, 1
  br i1 %33, label %44, label %34

34:                                               ; preds = %29
  %35 = load ptr, ptr %4, align 8, !tbaa !62
  %36 = getelementptr inbounds nuw %struct.H5D_io_info_t, ptr %35, i32 0, i32 3
  %37 = load i64, ptr %36, align 8, !tbaa !113
  %38 = icmp eq i64 %37, 1
  br i1 %38, label %39, label %96

39:                                               ; preds = %34
  %40 = load ptr, ptr %4, align 8, !tbaa !62
  %41 = getelementptr inbounds nuw %struct.H5D_io_info_t, ptr %40, i32 0, i32 25
  %42 = load i64, ptr %41, align 8, !tbaa !114
  %43 = icmp eq i64 %42, 0
  br i1 %43, label %44, label %96

44:                                               ; preds = %39, %29
  call void @llvm.lifetime.start.p0(i64 8, ptr %8) #6
  %45 = load ptr, ptr %5, align 8, !tbaa !64
  %46 = getelementptr inbounds nuw %struct.H5D_dset_io_info_t, ptr %45, i32 0, i32 11
  %47 = getelementptr inbounds nuw %struct.H5D_type_info_t, ptr %46, i32 0, i32 6
  %48 = load i64, ptr %47, align 8, !tbaa !107
  store i64 %48, ptr %8, align 8, !tbaa !49
  %49 = load ptr, ptr %5, align 8, !tbaa !64
  %50 = getelementptr inbounds nuw %struct.H5D_dset_io_info_t, ptr %49, i32 0, i32 0
  %51 = load ptr, ptr %50, align 8, !tbaa !66
  %52 = getelementptr inbounds nuw %struct.H5D_t, ptr %51, i32 0, i32 0
  %53 = getelementptr inbounds nuw %struct.H5O_loc_t, ptr %52, i32 0, i32 0
  %54 = load ptr, ptr %53, align 8, !tbaa !57
  %55 = call ptr @H5F_get_shared(ptr noundef %54)
  %56 = load ptr, ptr %5, align 8, !tbaa !64
  %57 = getelementptr inbounds nuw %struct.H5D_dset_io_info_t, ptr %56, i32 0, i32 6
  %58 = load i64, ptr %57, align 8, !tbaa !78
  %59 = icmp ugt i64 %58, 0
  %60 = select i1 %59, i32 1, i32 0
  %61 = load ptr, ptr %5, align 8, !tbaa !64
  %62 = getelementptr inbounds nuw %struct.H5D_dset_io_info_t, ptr %61, i32 0, i32 8
  %63 = load ptr, ptr %5, align 8, !tbaa !64
  %64 = getelementptr inbounds nuw %struct.H5D_dset_io_info_t, ptr %63, i32 0, i32 7
  %65 = load ptr, ptr %5, align 8, !tbaa !64
  %66 = getelementptr inbounds nuw %struct.H5D_dset_io_info_t, ptr %65, i32 0, i32 1
  %67 = load ptr, ptr %66, align 8, !tbaa !75
  %68 = getelementptr inbounds nuw %struct.H5D_contig_storage_t, ptr %67, i32 0, i32 0
  %69 = load ptr, ptr %5, align 8, !tbaa !64
  %70 = getelementptr inbounds nuw %struct.H5D_dset_io_info_t, ptr %69, i32 0, i32 3
  %71 = call i32 @H5F_shared_select_write(ptr noundef %55, i32 noundef 3, i32 noundef %60, ptr noundef %62, ptr noundef %64, ptr noundef %68, ptr noundef %8, ptr noundef %70)
  %72 = icmp slt i32 %71, 0
  br i1 %72, label %73, label %92

73:                                               ; preds = %44
  br label %74

74:                                               ; preds = %73
  br label %75

75:                                               ; preds = %74
  br label %76

76:                                               ; preds = %75
  %77 = load i64, ptr @H5E_DATASET_g, align 8, !tbaa !49
  %78 = load i64, ptr @H5E_WRITEERROR_g, align 8, !tbaa !49
  %79 = call i32 (ptr, ptr, i32, i64, i64, ptr, ...) @H5E_printf_stack(ptr noundef @.str.1, ptr noundef @__func__.H5D__contig_write, i32 noundef 937, i64 noundef %77, i64 noundef %78, ptr noundef @.str.16)
  br label %80

80:                                               ; preds = %76
  br label %81

81:                                               ; preds = %80
  store i8 1, ptr %7, align 1, !tbaa !12
  %82 = load i8, ptr %7, align 1, !tbaa !12, !range !14, !noundef !15
  %83 = trunc i8 %82 to i1
  %84 = zext i1 %83 to i8
  store i8 %84, ptr %7, align 1, !tbaa !12
  br label %85

85:                                               ; preds = %81
  br label %86

86:                                               ; preds = %85
  br label %87

87:                                               ; preds = %86
  store i32 -1, ptr %6, align 4, !tbaa !10
  store i32 10, ptr %9, align 4
  br label %93

88:                                               ; No predecessors!
  br label %89

89:                                               ; preds = %88
  br label %90

90:                                               ; preds = %89
  br label %91

91:                                               ; preds = %90
  br label %92

92:                                               ; preds = %91, %44
  store i32 0, ptr %9, align 4
  br label %93

93:                                               ; preds = %87, %92
  call void @llvm.lifetime.end.p0(i64 8, ptr %8) #6
  %94 = load i32, ptr %9, align 4
  switch i32 %94, label %210 [
    i32 0, label %95
    i32 10, label %207
  ]

95:                                               ; preds = %93
  br label %176

96:                                               ; preds = %39, %34
  %97 = load ptr, ptr %5, align 8, !tbaa !64
  %98 = getelementptr inbounds nuw %struct.H5D_dset_io_info_t, ptr %97, i32 0, i32 9
  %99 = load ptr, ptr %98, align 8, !tbaa !54
  %100 = icmp ne ptr %99, null
  br i1 %100, label %101, label %175

101:                                              ; preds = %96
  %102 = load ptr, ptr %5, align 8, !tbaa !64
  %103 = getelementptr inbounds nuw %struct.H5D_dset_io_info_t, ptr %102, i32 0, i32 8
  %104 = load ptr, ptr %103, align 8, !tbaa !85
  %105 = load ptr, ptr %4, align 8, !tbaa !62
  %106 = getelementptr inbounds nuw %struct.H5D_io_info_t, ptr %105, i32 0, i32 10
  %107 = load ptr, ptr %106, align 8, !tbaa !115
  %108 = load ptr, ptr %4, align 8, !tbaa !62
  %109 = getelementptr inbounds nuw %struct.H5D_io_info_t, ptr %108, i32 0, i32 7
  %110 = load i64, ptr %109, align 8, !tbaa !112
  %111 = getelementptr inbounds nuw ptr, ptr %107, i64 %110
  store ptr %104, ptr %111, align 8, !tbaa !79
  %112 = load ptr, ptr %5, align 8, !tbaa !64
  %113 = getelementptr inbounds nuw %struct.H5D_dset_io_info_t, ptr %112, i32 0, i32 7
  %114 = load ptr, ptr %113, align 8, !tbaa !77
  %115 = load ptr, ptr %4, align 8, !tbaa !62
  %116 = getelementptr inbounds nuw %struct.H5D_io_info_t, ptr %115, i32 0, i32 11
  %117 = load ptr, ptr %116, align 8, !tbaa !116
  %118 = load ptr, ptr %4, align 8, !tbaa !62
  %119 = getelementptr inbounds nuw %struct.H5D_io_info_t, ptr %118, i32 0, i32 7
  %120 = load i64, ptr %119, align 8, !tbaa !112
  %121 = getelementptr inbounds nuw ptr, ptr %117, i64 %120
  store ptr %114, ptr %121, align 8, !tbaa !79
  %122 = load ptr, ptr %5, align 8, !tbaa !64
  %123 = getelementptr inbounds nuw %struct.H5D_dset_io_info_t, ptr %122, i32 0, i32 1
  %124 = load ptr, ptr %123, align 8, !tbaa !75
  %125 = getelementptr inbounds nuw %struct.H5D_contig_storage_t, ptr %124, i32 0, i32 0
  %126 = load i64, ptr %125, align 8, !tbaa !54
  %127 = load ptr, ptr %4, align 8, !tbaa !62
  %128 = getelementptr inbounds nuw %struct.H5D_io_info_t, ptr %127, i32 0, i32 12
  %129 = load ptr, ptr %128, align 8, !tbaa !117
  %130 = load ptr, ptr %4, align 8, !tbaa !62
  %131 = getelementptr inbounds nuw %struct.H5D_io_info_t, ptr %130, i32 0, i32 7
  %132 = load i64, ptr %131, align 8, !tbaa !112
  %133 = getelementptr inbounds nuw i64, ptr %129, i64 %132
  store i64 %126, ptr %133, align 8, !tbaa !49
  %134 = load ptr, ptr %5, align 8, !tbaa !64
  %135 = getelementptr inbounds nuw %struct.H5D_dset_io_info_t, ptr %134, i32 0, i32 11
  %136 = getelementptr inbounds nuw %struct.H5D_type_info_t, ptr %135, i32 0, i32 6
  %137 = load i64, ptr %136, align 8, !tbaa !107
  %138 = load ptr, ptr %4, align 8, !tbaa !62
  %139 = getelementptr inbounds nuw %struct.H5D_io_info_t, ptr %138, i32 0, i32 13
  %140 = load ptr, ptr %139, align 8, !tbaa !118
  %141 = load ptr, ptr %4, align 8, !tbaa !62
  %142 = getelementptr inbounds nuw %struct.H5D_io_info_t, ptr %141, i32 0, i32 7
  %143 = load i64, ptr %142, align 8, !tbaa !112
  %144 = getelementptr inbounds nuw i64, ptr %140, i64 %143
  store i64 %137, ptr %144, align 8, !tbaa !49
  %145 = load ptr, ptr %5, align 8, !tbaa !64
  %146 = getelementptr inbounds nuw %struct.H5D_dset_io_info_t, ptr %145, i32 0, i32 3
  %147 = load ptr, ptr %146, align 8, !tbaa !54
  %148 = load ptr, ptr %4, align 8, !tbaa !62
  %149 = getelementptr inbounds nuw %struct.H5D_io_info_t, ptr %148, i32 0, i32 15
  %150 = load ptr, ptr %149, align 8, !tbaa !122
  %151 = load ptr, ptr %4, align 8, !tbaa !62
  %152 = getelementptr inbounds nuw %struct.H5D_io_info_t, ptr %151, i32 0, i32 7
  %153 = load i64, ptr %152, align 8, !tbaa !112
  %154 = getelementptr inbounds nuw ptr, ptr %150, i64 %153
  store ptr %147, ptr %154, align 8, !tbaa !120
  %155 = load ptr, ptr %4, align 8, !tbaa !62
  %156 = getelementptr inbounds nuw %struct.H5D_io_info_t, ptr %155, i32 0, i32 9
  %157 = load ptr, ptr %156, align 8, !tbaa !111
  %158 = icmp ne ptr %157, null
  br i1 %158, label %159, label %170

159:                                              ; preds = %101
  %160 = load ptr, ptr %5, align 8, !tbaa !64
  %161 = getelementptr inbounds nuw %struct.H5D_dset_io_info_t, ptr %160, i32 0, i32 9
  %162 = load ptr, ptr %161, align 8, !tbaa !54
  %163 = load ptr, ptr %4, align 8, !tbaa !62
  %164 = getelementptr inbounds nuw %struct.H5D_io_info_t, ptr %163, i32 0, i32 9
  %165 = load ptr, ptr %164, align 8, !tbaa !111
  %166 = load ptr, ptr %4, align 8, !tbaa !62
  %167 = getelementptr inbounds nuw %struct.H5D_io_info_t, ptr %166, i32 0, i32 7
  %168 = load i64, ptr %167, align 8, !tbaa !112
  %169 = getelementptr inbounds nuw ptr, ptr %165, i64 %168
  store ptr %162, ptr %169, align 8, !tbaa !80
  br label %170

170:                                              ; preds = %159, %101
  %171 = load ptr, ptr %4, align 8, !tbaa !62
  %172 = getelementptr inbounds nuw %struct.H5D_io_info_t, ptr %171, i32 0, i32 7
  %173 = load i64, ptr %172, align 8, !tbaa !112
  %174 = add i64 %173, 1
  store i64 %174, ptr %172, align 8, !tbaa !112
  br label %175

175:                                              ; preds = %170, %96
  br label %176

176:                                              ; preds = %175, %95
  br label %206

177:                                              ; preds = %24
  %178 = load ptr, ptr %5, align 8, !tbaa !64
  %179 = getelementptr inbounds nuw %struct.H5D_dset_io_info_t, ptr %178, i32 0, i32 4
  %180 = getelementptr inbounds nuw %struct.H5D_io_ops_t, ptr %179, i32 0, i32 3
  %181 = load ptr, ptr %180, align 8, !tbaa !123
  %182 = load ptr, ptr %4, align 8, !tbaa !62
  %183 = load ptr, ptr %5, align 8, !tbaa !64
  %184 = call i32 %181(ptr noundef %182, ptr noundef %183)
  %185 = icmp slt i32 %184, 0
  br i1 %185, label %186, label %205

186:                                              ; preds = %177
  br label %187

187:                                              ; preds = %186
  br label %188

188:                                              ; preds = %187
  br label %189

189:                                              ; preds = %188
  %190 = load i64, ptr @H5E_DATASET_g, align 8, !tbaa !49
  %191 = load i64, ptr @H5E_WRITEERROR_g, align 8, !tbaa !49
  %192 = call i32 (ptr, ptr, i32, i64, i64, ptr, ...) @H5E_printf_stack(ptr noundef @.str.1, ptr noundef @__func__.H5D__contig_write, i32 noundef 968, i64 noundef %190, i64 noundef %191, ptr noundef @.str.17)
  br label %193

193:                                              ; preds = %189
  br label %194

194:                                              ; preds = %193
  store i8 1, ptr %7, align 1, !tbaa !12
  %195 = load i8, ptr %7, align 1, !tbaa !12, !range !14, !noundef !15
  %196 = trunc i8 %195 to i1
  %197 = zext i1 %196 to i8
  store i8 %197, ptr %7, align 1, !tbaa !12
  br label %198

198:                                              ; preds = %194
  br label %199

199:                                              ; preds = %198
  br label %200

200:                                              ; preds = %199
  store i32 -1, ptr %6, align 4, !tbaa !10
  br label %207

201:                                              ; No predecessors!
  br label %202

202:                                              ; preds = %201
  br label %203

203:                                              ; preds = %202
  br label %204

204:                                              ; preds = %203
  br label %205

205:                                              ; preds = %204, %177
  br label %206

206:                                              ; preds = %205, %176
  br label %207

207:                                              ; preds = %206, %93, %200
  br label %208

208:                                              ; preds = %207, %16
  %209 = load i32, ptr %6, align 4, !tbaa !10
  store i32 %209, ptr %3, align 4
  store i32 1, ptr %9, align 4
  br label %210

210:                                              ; preds = %208, %93
  call void @llvm.lifetime.end.p0(i64 1, ptr %7) #6
  call void @llvm.lifetime.end.p0(i64 4, ptr %6) #6
  %211 = load i32, ptr %3, align 4
  ret i32 %211
}