; Function Attrs: nounwind uwtable
define range(i32 -1, 1) i32 @H5D__contig_write(ptr noundef %0, ptr noundef %1) #0 {
  %3 = alloca i64, align 8
  %4 = load i8, ptr @H5D_init_g, align 1, !tbaa !3, !range !7, !noundef !8
  %5 = trunc nuw i8 %4 to i1
  %6 = load i8, ptr @H5_libterm_g, align 1, !range !7
  %7 = trunc nuw i8 %6 to i1
  %8 = xor i1 %7, true
  %9 = select i1 %5, i1 true, i1 %8
  br i1 %9, label %10, label %93, !prof !9

10:                                               ; preds = %2
  %11 = getelementptr inbounds nuw i8, ptr %0, i64 168
  %12 = load i32, ptr %11, align 8, !tbaa !85
  %13 = icmp eq i32 %12, 2
  br i1 %13, label %14, label %84

14:                                               ; preds = %10
  %15 = getelementptr inbounds nuw i8, ptr %0, i64 48
  %16 = load i64, ptr %15, align 8, !tbaa !108
  %17 = icmp eq i64 %16, 1
  br i1 %17, label %18, label %43

18:                                               ; preds = %14
  %19 = getelementptr inbounds nuw i8, ptr %0, i64 224
  %20 = load i64, ptr %19, align 8, !tbaa !109
  %21 = icmp eq i64 %20, 0
  br i1 %21, label %22, label %43

22:                                               ; preds = %18
  call void @llvm.lifetime.start.p0(i64 8, ptr nonnull %3) #9
  %23 = getelementptr inbounds nuw i8, ptr %1, i64 256
  %24 = load i64, ptr %23, align 8, !tbaa !97
  store i64 %24, ptr %3, align 8, !tbaa !48
  %25 = load ptr, ptr %1, align 8, !tbaa !56
  %26 = load ptr, ptr %25, align 8, !tbaa !54
  %27 = tail call ptr @H5F_get_shared(ptr noundef %26) #9
  %28 = getelementptr inbounds nuw i8, ptr %1, i64 168
  %29 = load i64, ptr %28, align 8, !tbaa !69
  %.not43 = icmp ne i64 %29, 0
  %30 = zext i1 %.not43 to i32
  %31 = getelementptr inbounds nuw i8, ptr %1, i64 184
  %32 = getelementptr inbounds nuw i8, ptr %1, i64 176
  %33 = getelementptr inbounds nuw i8, ptr %1, i64 8
  %34 = load ptr, ptr %33, align 8, !tbaa !66
  %35 = getelementptr inbounds nuw i8, ptr %1, i64 120
  %36 = call i32 @H5F_shared_select_write(ptr noundef %27, i32 noundef 3, i32 noundef %30, ptr noundef nonnull %31, ptr noundef nonnull %32, ptr noundef %34, ptr noundef nonnull %3, ptr noundef nonnull %35) #9
  %37 = icmp slt i32 %36, 0
  br i1 %37, label %38, label %42

38:                                               ; preds = %22
  %39 = load i64, ptr @H5E_DATASET_g, align 8, !tbaa !48
  %40 = load i64, ptr @H5E_WRITEERROR_g, align 8, !tbaa !48
  %41 = call i32 (ptr, ptr, i32, i64, i64, ptr, ...) @H5E_printf_stack(ptr noundef nonnull @.str.1, ptr noundef nonnull @__func__.H5D__contig_write, i32 noundef 937, i64 noundef %39, i64 noundef %40, ptr noundef nonnull @.str.16) #9
  br label %42

42:                                               ; preds = %22, %38
  %.1 = phi i32 [ -1, %38 ], [ 0, %22 ]
  call void @llvm.lifetime.end.p0(i64 8, ptr nonnull %3) #9
  br label %93

43:                                               ; preds = %18, %14
  %44 = getelementptr inbounds nuw i8, ptr %1, i64 192
  %45 = load ptr, ptr %44, align 8, !tbaa !51
  %.not = icmp eq ptr %45, null
  br i1 %.not, label %93, label %46

46:                                               ; preds = %43
  %47 = getelementptr inbounds nuw i8, ptr %1, i64 184
  %48 = load ptr, ptr %47, align 8, !tbaa !75
  %49 = getelementptr inbounds nuw i8, ptr %0, i64 104
  %50 = load ptr, ptr %49, align 8, !tbaa !110
  %51 = getelementptr inbounds nuw i8, ptr %0, i64 80
  %52 = load i64, ptr %51, align 8, !tbaa !106
  %53 = getelementptr inbounds nuw ptr, ptr %50, i64 %52
  store ptr %48, ptr %53, align 8, !tbaa !111
  %54 = getelementptr inbounds nuw i8, ptr %1, i64 176
  %55 = load ptr, ptr %54, align 8, !tbaa !68
  %56 = getelementptr inbounds nuw i8, ptr %0, i64 112
  %57 = load ptr, ptr %56, align 8, !tbaa !112
  %58 = getelementptr inbounds nuw ptr, ptr %57, i64 %52
  store ptr %55, ptr %58, align 8, !tbaa !111
  %59 = getelementptr inbounds nuw i8, ptr %1, i64 8
  %60 = load ptr, ptr %59, align 8, !tbaa !66
  %61 = load i64, ptr %60, align 8, !tbaa !51
  %62 = getelementptr inbounds nuw i8, ptr %0, i64 120
  %63 = load ptr, ptr %62, align 8, !tbaa !113
  %64 = getelementptr inbounds nuw i64, ptr %63, i64 %52
  store i64 %61, ptr %64, align 8, !tbaa !48
  %65 = getelementptr inbounds nuw i8, ptr %1, i64 256
  %66 = load i64, ptr %65, align 8, !tbaa !97
  %67 = getelementptr inbounds nuw i8, ptr %0, i64 128
  %68 = load ptr, ptr %67, align 8, !tbaa !114
  %69 = load i64, ptr %51, align 8, !tbaa !106
  %70 = getelementptr inbounds nuw i64, ptr %68, i64 %69
  store i64 %66, ptr %70, align 8, !tbaa !48
  %71 = getelementptr inbounds nuw i8, ptr %1, i64 120
  %72 = load ptr, ptr %71, align 8, !tbaa !51
  %73 = getelementptr inbounds nuw i8, ptr %0, i64 144
  %74 = load ptr, ptr %73, align 8, !tbaa !118
  %75 = load i64, ptr %51, align 8, !tbaa !106
  %76 = getelementptr inbounds nuw ptr, ptr %74, i64 %75
  store ptr %72, ptr %76, align 8, !tbaa !116
  %77 = getelementptr inbounds nuw i8, ptr %0, i64 96
  %78 = load ptr, ptr %77, align 8, !tbaa !105
  %.not42 = icmp eq ptr %78, null
  br i1 %.not42, label %82, label %79

79:                                               ; preds = %46
  %80 = load ptr, ptr %44, align 8, !tbaa !51
  %81 = getelementptr inbounds nuw ptr, ptr %78, i64 %75
  store ptr %80, ptr %81, align 8, !tbaa !107
  br label %82

82:                                               ; preds = %79, %46
  %83 = add i64 %75, 1
  store i64 %83, ptr %51, align 8, !tbaa !106
  br label %93

84:                                               ; preds = %10
  %85 = getelementptr inbounds nuw i8, ptr %1, i64 152
  %86 = load ptr, ptr %85, align 8, !tbaa !119
  %87 = tail call i32 %86(ptr noundef nonnull %0, ptr noundef %1) #9
  %88 = icmp slt i32 %87, 0
  br i1 %88, label %89, label %93

89:                                               ; preds = %84
  %90 = load i64, ptr @H5E_DATASET_g, align 8, !tbaa !48
  %91 = load i64, ptr @H5E_WRITEERROR_g, align 8, !tbaa !48
  %92 = tail call i32 (ptr, ptr, i32, i64, i64, ptr, ...) @H5E_printf_stack(ptr noundef nonnull @.str.1, ptr noundef nonnull @__func__.H5D__contig_write, i32 noundef 968, i64 noundef %90, i64 noundef %91, ptr noundef nonnull @.str.17) #9
  br label %93

93:                                               ; preds = %42, %2, %43, %82, %84, %89
  %.040 = phi i32 [ %.1, %42 ], [ 0, %82 ], [ 0, %43 ], [ -1, %89 ], [ 0, %84 ], [ 0, %2 ]
  ret i32 %.040
}